
symmainStack-args:     file format elf64-x86-64


Disassembly of section .init:

0000000000001000 <_init>:
    1000:	f3 0f 1e fa          	endbr64
    1004:	48 83 ec 08          	sub    $0x8,%rsp
    1008:	48 8b 05 d9 2f 00 00 	mov    0x2fd9(%rip),%rax        # 3fe8 <__gmon_start__@Base>
    100f:	48 85 c0             	test   %rax,%rax
    1012:	74 02                	je     1016 <_init+0x16>
    1014:	ff d0                	call   *%rax
    1016:	48 83 c4 08          	add    $0x8,%rsp
    101a:	c3                   	ret

Disassembly of section .plt:

0000000000001020 <.plt>:
    1020:	ff 35 7a 2f 00 00    	push   0x2f7a(%rip)        # 3fa0 <_GLOBAL_OFFSET_TABLE_+0x8>
    1026:	f2 ff 25 7b 2f 00 00 	bnd jmp *0x2f7b(%rip)        # 3fa8 <_GLOBAL_OFFSET_TABLE_+0x10>
    102d:	0f 1f 00             	nopl   (%rax)
    1030:	f3 0f 1e fa          	endbr64
    1034:	68 00 00 00 00       	push   $0x0
    1039:	f2 e9 e1 ff ff ff    	bnd jmp 1020 <_init+0x20>
    103f:	90                   	nop
    1040:	f3 0f 1e fa          	endbr64
    1044:	68 01 00 00 00       	push   $0x1
    1049:	f2 e9 d1 ff ff ff    	bnd jmp 1020 <_init+0x20>
    104f:	90                   	nop
    1050:	f3 0f 1e fa          	endbr64
    1054:	68 02 00 00 00       	push   $0x2
    1059:	f2 e9 c1 ff ff ff    	bnd jmp 1020 <_init+0x20>
    105f:	90                   	nop
    1060:	f3 0f 1e fa          	endbr64
    1064:	68 03 00 00 00       	push   $0x3
    1069:	f2 e9 b1 ff ff ff    	bnd jmp 1020 <_init+0x20>
    106f:	90                   	nop

Disassembly of section .plt.got:

0000000000001070 <__cxa_finalize@plt>:
    1070:	f3 0f 1e fa          	endbr64
    1074:	f2 ff 25 55 2f 00 00 	bnd jmp *0x2f55(%rip)        # 3fd0 <__cxa_finalize@GLIBC_2.2.5>
    107b:	0f 1f 44 00 00       	nopl   0x0(%rax,%rax,1)

Disassembly of section .plt.sec:

0000000000001080 <__assert_fail@plt>:
    1080:	f3 0f 1e fa          	endbr64
    1084:	f2 ff 25 25 2f 00 00 	bnd jmp *0x2f25(%rip)        # 3fb0 <__assert_fail@GLIBC_2.2.5>
    108b:	0f 1f 44 00 00       	nopl   0x0(%rax,%rax,1)

0000000000001090 <__cxa_atexit@plt>:
    1090:	f3 0f 1e fa          	endbr64
    1094:	f2 ff 25 1d 2f 00 00 	bnd jmp *0x2f1d(%rip)        # 3fb8 <__cxa_atexit@GLIBC_2.2.5>
    109b:	0f 1f 44 00 00       	nopl   0x0(%rax,%rax,1)

00000000000010a0 <_ZNSt8ios_base4InitC1Ev@plt>:
    10a0:	f3 0f 1e fa          	endbr64
    10a4:	f2 ff 25 15 2f 00 00 	bnd jmp *0x2f15(%rip)        # 3fc0 <_ZNSt8ios_base4InitC1Ev@GLIBCXX_3.4>
    10ab:	0f 1f 44 00 00       	nopl   0x0(%rax,%rax,1)

00000000000010b0 <atoi@plt>:
    10b0:	f3 0f 1e fa          	endbr64
    10b4:	f2 ff 25 0d 2f 00 00 	bnd jmp *0x2f0d(%rip)        # 3fc8 <atoi@GLIBC_2.2.5>
    10bb:	0f 1f 44 00 00       	nopl   0x0(%rax,%rax,1)

Disassembly of section .text:

00000000000010c0 <_start>:
    10c0:	f3 0f 1e fa          	endbr64
    10c4:	31 ed                	xor    %ebp,%ebp
    10c6:	49 89 d1             	mov    %rdx,%r9
    10c9:	5e                   	pop    %rsi
    10ca:	48 89 e2             	mov    %rsp,%rdx
    10cd:	48 83 e4 f0          	and    $0xfffffffffffffff0,%rsp
    10d1:	50                   	push   %rax
    10d2:	54                   	push   %rsp
    10d3:	45 31 c0             	xor    %r8d,%r8d
    10d6:	31 c9                	xor    %ecx,%ecx
    10d8:	48 8d 3d 9b 01 00 00 	lea    0x19b(%rip),%rdi        # 127a <main>
    10df:	ff 15 f3 2e 00 00    	call   *0x2ef3(%rip)        # 3fd8 <__libc_start_main@GLIBC_2.34>
    10e5:	f4                   	hlt
    10e6:	66 2e 0f 1f 84 00 00 	cs nopw 0x0(%rax,%rax,1)
    10ed:	00 00 00 

00000000000010f0 <deregister_tm_clones>:
    10f0:	48 8d 3d 19 2f 00 00 	lea    0x2f19(%rip),%rdi        # 4010 <__TMC_END__>
    10f7:	48 8d 05 12 2f 00 00 	lea    0x2f12(%rip),%rax        # 4010 <__TMC_END__>
    10fe:	48 39 f8             	cmp    %rdi,%rax
    1101:	74 15                	je     1118 <deregister_tm_clones+0x28>
    1103:	48 8b 05 d6 2e 00 00 	mov    0x2ed6(%rip),%rax        # 3fe0 <_ITM_deregisterTMCloneTable@Base>
    110a:	48 85 c0             	test   %rax,%rax
    110d:	74 09                	je     1118 <deregister_tm_clones+0x28>
    110f:	ff e0                	jmp    *%rax
    1111:	0f 1f 80 00 00 00 00 	nopl   0x0(%rax)
    1118:	c3                   	ret
    1119:	0f 1f 80 00 00 00 00 	nopl   0x0(%rax)

0000000000001120 <register_tm_clones>:
    1120:	48 8d 3d e9 2e 00 00 	lea    0x2ee9(%rip),%rdi        # 4010 <__TMC_END__>
    1127:	48 8d 35 e2 2e 00 00 	lea    0x2ee2(%rip),%rsi        # 4010 <__TMC_END__>
    112e:	48 29 fe             	sub    %rdi,%rsi
    1131:	48 89 f0             	mov    %rsi,%rax
    1134:	48 c1 ee 3f          	shr    $0x3f,%rsi
    1138:	48 c1 f8 03          	sar    $0x3,%rax
    113c:	48 01 c6             	add    %rax,%rsi
    113f:	48 d1 fe             	sar    %rsi
    1142:	74 14                	je     1158 <register_tm_clones+0x38>
    1144:	48 8b 05 a5 2e 00 00 	mov    0x2ea5(%rip),%rax        # 3ff0 <_ITM_registerTMCloneTable@Base>
    114b:	48 85 c0             	test   %rax,%rax
    114e:	74 08                	je     1158 <register_tm_clones+0x38>
    1150:	ff e0                	jmp    *%rax
    1152:	66 0f 1f 44 00 00    	nopw   0x0(%rax,%rax,1)
    1158:	c3                   	ret
    1159:	0f 1f 80 00 00 00 00 	nopl   0x0(%rax)

0000000000001160 <__do_global_dtors_aux>:
    1160:	f3 0f 1e fa          	endbr64
    1164:	80 3d a5 2e 00 00 00 	cmpb   $0x0,0x2ea5(%rip)        # 4010 <__TMC_END__>
    116b:	75 2b                	jne    1198 <__do_global_dtors_aux+0x38>
    116d:	55                   	push   %rbp
    116e:	48 83 3d 5a 2e 00 00 	cmpq   $0x0,0x2e5a(%rip)        # 3fd0 <__cxa_finalize@GLIBC_2.2.5>
    1175:	00 
    1176:	48 89 e5             	mov    %rsp,%rbp
    1179:	74 0c                	je     1187 <__do_global_dtors_aux+0x27>
    117b:	48 8b 3d 86 2e 00 00 	mov    0x2e86(%rip),%rdi        # 4008 <__dso_handle>
    1182:	e8 e9 fe ff ff       	call   1070 <__cxa_finalize@plt>
    1187:	e8 64 ff ff ff       	call   10f0 <deregister_tm_clones>
    118c:	c6 05 7d 2e 00 00 01 	movb   $0x1,0x2e7d(%rip)        # 4010 <__TMC_END__>
    1193:	5d                   	pop    %rbp
    1194:	c3                   	ret
    1195:	0f 1f 00             	nopl   (%rax)
    1198:	c3                   	ret
    1199:	0f 1f 80 00 00 00 00 	nopl   0x0(%rax)

00000000000011a0 <frame_dummy>:
    11a0:	f3 0f 1e fa          	endbr64
    11a4:	e9 77 ff ff ff       	jmp    1120 <register_tm_clones>

00000000000011a9 <_Z4add1ii>:
    11a9:	f3 0f 1e fa          	endbr64
    11ad:	55                   	push   %rbp
    11ae:	48 89 e5             	mov    %rsp,%rbp
    11b1:	89 7d fc             	mov    %edi,-0x4(%rbp)
    11b4:	89 75 f8             	mov    %esi,-0x8(%rbp)
    11b7:	8b 45 fc             	mov    -0x4(%rbp),%eax
    11ba:	83 c0 01             	add    $0x1,%eax
    11bd:	5d                   	pop    %rbp
    11be:	c3                   	ret

00000000000011bf <_Z4add2ii>:
    11bf:	f3 0f 1e fa          	endbr64
    11c3:	55                   	push   %rbp
    11c4:	48 89 e5             	mov    %rsp,%rbp
    11c7:	48 83 ec 08          	sub    $0x8,%rsp
    11cb:	89 7d fc             	mov    %edi,-0x4(%rbp)
    11ce:	89 75 f8             	mov    %esi,-0x8(%rbp)
    11d1:	8b 55 f8             	mov    -0x8(%rbp),%edx
    11d4:	8b 45 fc             	mov    -0x4(%rbp),%eax
    11d7:	89 d6                	mov    %edx,%esi
    11d9:	89 c7                	mov    %eax,%edi
    11db:	e8 c9 ff ff ff       	call   11a9 <_Z4add1ii>
    11e0:	83 c0 01             	add    $0x1,%eax
    11e3:	c9                   	leave
    11e4:	c3                   	ret

00000000000011e5 <_Z4add3ii>:
    11e5:	f3 0f 1e fa          	endbr64
    11e9:	55                   	push   %rbp
    11ea:	48 89 e5             	mov    %rsp,%rbp
    11ed:	48 83 ec 08          	sub    $0x8,%rsp
    11f1:	89 7d fc             	mov    %edi,-0x4(%rbp)
    11f4:	89 75 f8             	mov    %esi,-0x8(%rbp)
    11f7:	8b 55 f8             	mov    -0x8(%rbp),%edx
    11fa:	8b 45 fc             	mov    -0x4(%rbp),%eax
    11fd:	89 d6                	mov    %edx,%esi
    11ff:	89 c7                	mov    %eax,%edi
    1201:	e8 b9 ff ff ff       	call   11bf <_Z4add2ii>
    1206:	83 c0 01             	add    $0x1,%eax
    1209:	c9                   	leave
    120a:	c3                   	ret

000000000000120b <_Z4add4ii>:
    120b:	f3 0f 1e fa          	endbr64
    120f:	55                   	push   %rbp
    1210:	48 89 e5             	mov    %rsp,%rbp
    1213:	48 83 ec 08          	sub    $0x8,%rsp
    1217:	89 7d fc             	mov    %edi,-0x4(%rbp)
    121a:	89 75 f8             	mov    %esi,-0x8(%rbp)
    121d:	8b 55 f8             	mov    -0x8(%rbp),%edx
    1220:	8b 45 fc             	mov    -0x4(%rbp),%eax
    1223:	89 d6                	mov    %edx,%esi
    1225:	89 c7                	mov    %eax,%edi
    1227:	e8 b9 ff ff ff       	call   11e5 <_Z4add3ii>
    122c:	83 c0 01             	add    $0x1,%eax
    122f:	c9                   	leave
    1230:	c3                   	ret

0000000000001231 <_Z4add5ii>:
    1231:	f3 0f 1e fa          	endbr64
    1235:	55                   	push   %rbp
    1236:	48 89 e5             	mov    %rsp,%rbp
    1239:	48 83 ec 08          	sub    $0x8,%rsp
    123d:	89 7d fc             	mov    %edi,-0x4(%rbp)
    1240:	89 75 f8             	mov    %esi,-0x8(%rbp)
    1243:	8b 55 f8             	mov    -0x8(%rbp),%edx
    1246:	8b 45 fc             	mov    -0x4(%rbp),%eax
    1249:	89 d6                	mov    %edx,%esi
    124b:	89 c7                	mov    %eax,%edi
    124d:	e8 b9 ff ff ff       	call   120b <_Z4add4ii>
    1252:	83 c0 01             	add    $0x1,%eax
    1255:	c9                   	leave
    1256:	c3                   	ret

0000000000001257 <_Z6addx_yii>:
    1257:	f3 0f 1e fa          	endbr64
    125b:	55                   	push   %rbp
    125c:	48 89 e5             	mov    %rsp,%rbp
    125f:	48 83 ec 08          	sub    $0x8,%rsp
    1263:	89 7d fc             	mov    %edi,-0x4(%rbp)
    1266:	89 75 f8             	mov    %esi,-0x8(%rbp)
    1269:	8b 55 f8             	mov    -0x8(%rbp),%edx
    126c:	8b 45 fc             	mov    -0x4(%rbp),%eax
    126f:	89 d6                	mov    %edx,%esi
    1271:	89 c7                	mov    %eax,%edi
    1273:	e8 b9 ff ff ff       	call   1231 <_Z4add5ii>
    1278:	c9                   	leave
    1279:	c3                   	ret

000000000000127a <main>:
    127a:	f3 0f 1e fa          	endbr64
    127e:	55                   	push   %rbp
    127f:	48 89 e5             	mov    %rsp,%rbp
    1282:	48 83 ec 20          	sub    $0x20,%rsp
    1286:	89 7d ec             	mov    %edi,-0x14(%rbp)
    1289:	48 89 75 e0          	mov    %rsi,-0x20(%rbp)
    128d:	c7 45 f4 04 00 00 00 	movl   $0x4,-0xc(%rbp)
    1294:	c7 45 f8 05 00 00 00 	movl   $0x5,-0x8(%rbp)
    129b:	48 8b 45 e0          	mov    -0x20(%rbp),%rax
    129f:	48 83 c0 08          	add    $0x8,%rax
    12a3:	48 8b 00             	mov    (%rax),%rax
    12a6:	48 89 c7             	mov    %rax,%rdi
    12a9:	e8 02 fe ff ff       	call   10b0 <atoi@plt>
    12ae:	89 45 f4             	mov    %eax,-0xc(%rbp)
    12b1:	48 8b 45 e0          	mov    -0x20(%rbp),%rax
    12b5:	48 83 c0 10          	add    $0x10,%rax
    12b9:	48 8b 00             	mov    (%rax),%rax
    12bc:	48 89 c7             	mov    %rax,%rdi
    12bf:	e8 ec fd ff ff       	call   10b0 <atoi@plt>
    12c4:	89 45 f8             	mov    %eax,-0x8(%rbp)
    12c7:	8b 55 f8             	mov    -0x8(%rbp),%edx
    12ca:	8b 45 f4             	mov    -0xc(%rbp),%eax
    12cd:	89 d6                	mov    %edx,%esi
    12cf:	89 c7                	mov    %eax,%edi
    12d1:	e8 81 ff ff ff       	call   1257 <_Z6addx_yii>
    12d6:	89 45 fc             	mov    %eax,-0x4(%rbp)
    12d9:	8b 55 f4             	mov    -0xc(%rbp),%edx
    12dc:	8b 45 f8             	mov    -0x8(%rbp),%eax
    12df:	01 d0                	add    %edx,%eax
    12e1:	39 45 fc             	cmp    %eax,-0x4(%rbp)
    12e4:	74 28                	je     130e <main+0x94>
    12e6:	48 8d 05 1b 0d 00 00 	lea    0xd1b(%rip),%rax        # 2008 <_IO_stdin_used+0x8>
    12ed:	48 89 c1             	mov    %rax,%rcx
    12f0:	ba 32 00 00 00       	mov    $0x32,%edx
    12f5:	48 8d 05 24 0d 00 00 	lea    0xd24(%rip),%rax        # 2020 <_IO_stdin_used+0x20>
    12fc:	48 89 c6             	mov    %rax,%rsi
    12ff:	48 8d 05 40 0d 00 00 	lea    0xd40(%rip),%rax        # 2046 <_IO_stdin_used+0x46>
    1306:	48 89 c7             	mov    %rax,%rdi
    1309:	e8 72 fd ff ff       	call   1080 <__assert_fail@plt>
    130e:	b8 00 00 00 00       	mov    $0x0,%eax
    1313:	c9                   	leave
    1314:	c3                   	ret

0000000000001315 <_Z41__static_initialization_and_destruction_0ii>:
    1315:	f3 0f 1e fa          	endbr64
    1319:	55                   	push   %rbp
    131a:	48 89 e5             	mov    %rsp,%rbp
    131d:	48 83 ec 10          	sub    $0x10,%rsp
    1321:	89 7d fc             	mov    %edi,-0x4(%rbp)
    1324:	89 75 f8             	mov    %esi,-0x8(%rbp)
    1327:	83 7d fc 01          	cmpl   $0x1,-0x4(%rbp)
    132b:	75 3b                	jne    1368 <_Z41__static_initialization_and_destruction_0ii+0x53>
    132d:	81 7d f8 ff ff 00 00 	cmpl   $0xffff,-0x8(%rbp)
    1334:	75 32                	jne    1368 <_Z41__static_initialization_and_destruction_0ii+0x53>
    1336:	48 8d 05 d4 2c 00 00 	lea    0x2cd4(%rip),%rax        # 4011 <_ZStL8__ioinit>
    133d:	48 89 c7             	mov    %rax,%rdi
    1340:	e8 5b fd ff ff       	call   10a0 <_ZNSt8ios_base4InitC1Ev@plt>
    1345:	48 8d 05 bc 2c 00 00 	lea    0x2cbc(%rip),%rax        # 4008 <__dso_handle>
    134c:	48 89 c2             	mov    %rax,%rdx
    134f:	48 8d 05 bb 2c 00 00 	lea    0x2cbb(%rip),%rax        # 4011 <_ZStL8__ioinit>
    1356:	48 89 c6             	mov    %rax,%rsi
    1359:	48 8b 05 98 2c 00 00 	mov    0x2c98(%rip),%rax        # 3ff8 <_ZNSt8ios_base4InitD1Ev@GLIBCXX_3.4>
    1360:	48 89 c7             	mov    %rax,%rdi
    1363:	e8 28 fd ff ff       	call   1090 <__cxa_atexit@plt>
    1368:	90                   	nop
    1369:	c9                   	leave
    136a:	c3                   	ret

000000000000136b <_GLOBAL__sub_I__Z4add1ii>:
    136b:	f3 0f 1e fa          	endbr64
    136f:	55                   	push   %rbp
    1370:	48 89 e5             	mov    %rsp,%rbp
    1373:	be ff ff 00 00       	mov    $0xffff,%esi
    1378:	bf 01 00 00 00       	mov    $0x1,%edi
    137d:	e8 93 ff ff ff       	call   1315 <_Z41__static_initialization_and_destruction_0ii>
    1382:	5d                   	pop    %rbp
    1383:	c3                   	ret

Disassembly of section .fini:

0000000000001384 <_fini>:
    1384:	f3 0f 1e fa          	endbr64
    1388:	48 83 ec 08          	sub    $0x8,%rsp
    138c:	48 83 c4 08          	add    $0x8,%rsp
    1390:	c3                   	ret
