
symmainStack-cin:     file format elf64-x86-64


Disassembly of section .init:

0000000000001000 <_init>:
    1000:	f3 0f 1e fa          	endbr64
    1004:	48 83 ec 08          	sub    $0x8,%rsp
    1008:	48 8b 05 d9 2f 00 00 	mov    0x2fd9(%rip),%rax        # 3fe8 <__gmon_start__@Base>
    100f:	48 85 c0             	test   %rax,%rax
    1012:	74 02                	je     1016 <_init+0x16>
    1014:	ff d0                	call   *%rax
    1016:	48 83 c4 08          	add    $0x8,%rsp
    101a:	c3                   	ret

Disassembly of section .plt:

0000000000001020 <.plt>:
    1020:	ff 35 72 2f 00 00    	push   0x2f72(%rip)        # 3f98 <_GLOBAL_OFFSET_TABLE_+0x8>
    1026:	f2 ff 25 73 2f 00 00 	bnd jmp *0x2f73(%rip)        # 3fa0 <_GLOBAL_OFFSET_TABLE_+0x10>
    102d:	0f 1f 00             	nopl   (%rax)
    1030:	f3 0f 1e fa          	endbr64
    1034:	68 00 00 00 00       	push   $0x0
    1039:	f2 e9 e1 ff ff ff    	bnd jmp 1020 <_init+0x20>
    103f:	90                   	nop
    1040:	f3 0f 1e fa          	endbr64
    1044:	68 01 00 00 00       	push   $0x1
    1049:	f2 e9 d1 ff ff ff    	bnd jmp 1020 <_init+0x20>
    104f:	90                   	nop
    1050:	f3 0f 1e fa          	endbr64
    1054:	68 02 00 00 00       	push   $0x2
    1059:	f2 e9 c1 ff ff ff    	bnd jmp 1020 <_init+0x20>
    105f:	90                   	nop
    1060:	f3 0f 1e fa          	endbr64
    1064:	68 03 00 00 00       	push   $0x3
    1069:	f2 e9 b1 ff ff ff    	bnd jmp 1020 <_init+0x20>
    106f:	90                   	nop
    1070:	f3 0f 1e fa          	endbr64
    1074:	68 04 00 00 00       	push   $0x4
    1079:	f2 e9 a1 ff ff ff    	bnd jmp 1020 <_init+0x20>
    107f:	90                   	nop

Disassembly of section .plt.got:

0000000000001080 <__cxa_finalize@plt>:
    1080:	f3 0f 1e fa          	endbr64
    1084:	f2 ff 25 45 2f 00 00 	bnd jmp *0x2f45(%rip)        # 3fd0 <__cxa_finalize@GLIBC_2.2.5>
    108b:	0f 1f 44 00 00       	nopl   0x0(%rax,%rax,1)

Disassembly of section .plt.sec:

0000000000001090 <_ZNSirsERi@plt>:
    1090:	f3 0f 1e fa          	endbr64
    1094:	f2 ff 25 0d 2f 00 00 	bnd jmp *0x2f0d(%rip)        # 3fa8 <_ZNSirsERi@GLIBCXX_3.4>
    109b:	0f 1f 44 00 00       	nopl   0x0(%rax,%rax,1)

00000000000010a0 <__assert_fail@plt>:
    10a0:	f3 0f 1e fa          	endbr64
    10a4:	f2 ff 25 05 2f 00 00 	bnd jmp *0x2f05(%rip)        # 3fb0 <__assert_fail@GLIBC_2.2.5>
    10ab:	0f 1f 44 00 00       	nopl   0x0(%rax,%rax,1)

00000000000010b0 <__cxa_atexit@plt>:
    10b0:	f3 0f 1e fa          	endbr64
    10b4:	f2 ff 25 fd 2e 00 00 	bnd jmp *0x2efd(%rip)        # 3fb8 <__cxa_atexit@GLIBC_2.2.5>
    10bb:	0f 1f 44 00 00       	nopl   0x0(%rax,%rax,1)

00000000000010c0 <__stack_chk_fail@plt>:
    10c0:	f3 0f 1e fa          	endbr64
    10c4:	f2 ff 25 f5 2e 00 00 	bnd jmp *0x2ef5(%rip)        # 3fc0 <__stack_chk_fail@GLIBC_2.4>
    10cb:	0f 1f 44 00 00       	nopl   0x0(%rax,%rax,1)

00000000000010d0 <_ZNSt8ios_base4InitC1Ev@plt>:
    10d0:	f3 0f 1e fa          	endbr64
    10d4:	f2 ff 25 ed 2e 00 00 	bnd jmp *0x2eed(%rip)        # 3fc8 <_ZNSt8ios_base4InitC1Ev@GLIBCXX_3.4>
    10db:	0f 1f 44 00 00       	nopl   0x0(%rax,%rax,1)

Disassembly of section .text:

00000000000010e0 <_start>:
    10e0:	f3 0f 1e fa          	endbr64
    10e4:	31 ed                	xor    %ebp,%ebp
    10e6:	49 89 d1             	mov    %rdx,%r9
    10e9:	5e                   	pop    %rsi
    10ea:	48 89 e2             	mov    %rsp,%rdx
    10ed:	48 83 e4 f0          	and    $0xfffffffffffffff0,%rsp
    10f1:	50                   	push   %rax
    10f2:	54                   	push   %rsp
    10f3:	45 31 c0             	xor    %r8d,%r8d
    10f6:	31 c9                	xor    %ecx,%ecx
    10f8:	48 8d 3d 9b 01 00 00 	lea    0x19b(%rip),%rdi        # 129a <main>
    10ff:	ff 15 d3 2e 00 00    	call   *0x2ed3(%rip)        # 3fd8 <__libc_start_main@GLIBC_2.34>
    1105:	f4                   	hlt
    1106:	66 2e 0f 1f 84 00 00 	cs nopw 0x0(%rax,%rax,1)
    110d:	00 00 00 

0000000000001110 <deregister_tm_clones>:
    1110:	48 8d 3d f9 2e 00 00 	lea    0x2ef9(%rip),%rdi        # 4010 <__TMC_END__>
    1117:	48 8d 05 f2 2e 00 00 	lea    0x2ef2(%rip),%rax        # 4010 <__TMC_END__>
    111e:	48 39 f8             	cmp    %rdi,%rax
    1121:	74 15                	je     1138 <deregister_tm_clones+0x28>
    1123:	48 8b 05 b6 2e 00 00 	mov    0x2eb6(%rip),%rax        # 3fe0 <_ITM_deregisterTMCloneTable@Base>
    112a:	48 85 c0             	test   %rax,%rax
    112d:	74 09                	je     1138 <deregister_tm_clones+0x28>
    112f:	ff e0                	jmp    *%rax
    1131:	0f 1f 80 00 00 00 00 	nopl   0x0(%rax)
    1138:	c3                   	ret
    1139:	0f 1f 80 00 00 00 00 	nopl   0x0(%rax)

0000000000001140 <register_tm_clones>:
    1140:	48 8d 3d c9 2e 00 00 	lea    0x2ec9(%rip),%rdi        # 4010 <__TMC_END__>
    1147:	48 8d 35 c2 2e 00 00 	lea    0x2ec2(%rip),%rsi        # 4010 <__TMC_END__>
    114e:	48 29 fe             	sub    %rdi,%rsi
    1151:	48 89 f0             	mov    %rsi,%rax
    1154:	48 c1 ee 3f          	shr    $0x3f,%rsi
    1158:	48 c1 f8 03          	sar    $0x3,%rax
    115c:	48 01 c6             	add    %rax,%rsi
    115f:	48 d1 fe             	sar    %rsi
    1162:	74 14                	je     1178 <register_tm_clones+0x38>
    1164:	48 8b 05 85 2e 00 00 	mov    0x2e85(%rip),%rax        # 3ff0 <_ITM_registerTMCloneTable@Base>
    116b:	48 85 c0             	test   %rax,%rax
    116e:	74 08                	je     1178 <register_tm_clones+0x38>
    1170:	ff e0                	jmp    *%rax
    1172:	66 0f 1f 44 00 00    	nopw   0x0(%rax,%rax,1)
    1178:	c3                   	ret
    1179:	0f 1f 80 00 00 00 00 	nopl   0x0(%rax)

0000000000001180 <__do_global_dtors_aux>:
    1180:	f3 0f 1e fa          	endbr64
    1184:	80 3d ad 2f 00 00 00 	cmpb   $0x0,0x2fad(%rip)        # 4138 <completed.0>
    118b:	75 2b                	jne    11b8 <__do_global_dtors_aux+0x38>
    118d:	55                   	push   %rbp
    118e:	48 83 3d 3a 2e 00 00 	cmpq   $0x0,0x2e3a(%rip)        # 3fd0 <__cxa_finalize@GLIBC_2.2.5>
    1195:	00 
    1196:	48 89 e5             	mov    %rsp,%rbp
    1199:	74 0c                	je     11a7 <__do_global_dtors_aux+0x27>
    119b:	48 8b 3d 66 2e 00 00 	mov    0x2e66(%rip),%rdi        # 4008 <__dso_handle>
    11a2:	e8 d9 fe ff ff       	call   1080 <__cxa_finalize@plt>
    11a7:	e8 64 ff ff ff       	call   1110 <deregister_tm_clones>
    11ac:	c6 05 85 2f 00 00 01 	movb   $0x1,0x2f85(%rip)        # 4138 <completed.0>
    11b3:	5d                   	pop    %rbp
    11b4:	c3                   	ret
    11b5:	0f 1f 00             	nopl   (%rax)
    11b8:	c3                   	ret
    11b9:	0f 1f 80 00 00 00 00 	nopl   0x0(%rax)

00000000000011c0 <frame_dummy>:
    11c0:	f3 0f 1e fa          	endbr64
    11c4:	e9 77 ff ff ff       	jmp    1140 <register_tm_clones>

00000000000011c9 <_Z4add1ii>:
    11c9:	f3 0f 1e fa          	endbr64
    11cd:	55                   	push   %rbp
    11ce:	48 89 e5             	mov    %rsp,%rbp
    11d1:	89 7d fc             	mov    %edi,-0x4(%rbp)
    11d4:	89 75 f8             	mov    %esi,-0x8(%rbp)
    11d7:	8b 45 fc             	mov    -0x4(%rbp),%eax
    11da:	83 c0 01             	add    $0x1,%eax
    11dd:	5d                   	pop    %rbp
    11de:	c3                   	ret

00000000000011df <_Z4add2ii>:
    11df:	f3 0f 1e fa          	endbr64
    11e3:	55                   	push   %rbp
    11e4:	48 89 e5             	mov    %rsp,%rbp
    11e7:	48 83 ec 08          	sub    $0x8,%rsp
    11eb:	89 7d fc             	mov    %edi,-0x4(%rbp)
    11ee:	89 75 f8             	mov    %esi,-0x8(%rbp)
    11f1:	8b 55 f8             	mov    -0x8(%rbp),%edx
    11f4:	8b 45 fc             	mov    -0x4(%rbp),%eax
    11f7:	89 d6                	mov    %edx,%esi
    11f9:	89 c7                	mov    %eax,%edi
    11fb:	e8 c9 ff ff ff       	call   11c9 <_Z4add1ii>
    1200:	83 c0 01             	add    $0x1,%eax
    1203:	c9                   	leave
    1204:	c3                   	ret

0000000000001205 <_Z4add3ii>:
    1205:	f3 0f 1e fa          	endbr64
    1209:	55                   	push   %rbp
    120a:	48 89 e5             	mov    %rsp,%rbp
    120d:	48 83 ec 08          	sub    $0x8,%rsp
    1211:	89 7d fc             	mov    %edi,-0x4(%rbp)
    1214:	89 75 f8             	mov    %esi,-0x8(%rbp)
    1217:	8b 55 f8             	mov    -0x8(%rbp),%edx
    121a:	8b 45 fc             	mov    -0x4(%rbp),%eax
    121d:	89 d6                	mov    %edx,%esi
    121f:	89 c7                	mov    %eax,%edi
    1221:	e8 b9 ff ff ff       	call   11df <_Z4add2ii>
    1226:	83 c0 01             	add    $0x1,%eax
    1229:	c9                   	leave
    122a:	c3                   	ret

000000000000122b <_Z4add4ii>:
    122b:	f3 0f 1e fa          	endbr64
    122f:	55                   	push   %rbp
    1230:	48 89 e5             	mov    %rsp,%rbp
    1233:	48 83 ec 08          	sub    $0x8,%rsp
    1237:	89 7d fc             	mov    %edi,-0x4(%rbp)
    123a:	89 75 f8             	mov    %esi,-0x8(%rbp)
    123d:	8b 55 f8             	mov    -0x8(%rbp),%edx
    1240:	8b 45 fc             	mov    -0x4(%rbp),%eax
    1243:	89 d6                	mov    %edx,%esi
    1245:	89 c7                	mov    %eax,%edi
    1247:	e8 b9 ff ff ff       	call   1205 <_Z4add3ii>
    124c:	83 c0 01             	add    $0x1,%eax
    124f:	c9                   	leave
    1250:	c3                   	ret

0000000000001251 <_Z4add5ii>:
    1251:	f3 0f 1e fa          	endbr64
    1255:	55                   	push   %rbp
    1256:	48 89 e5             	mov    %rsp,%rbp
    1259:	48 83 ec 08          	sub    $0x8,%rsp
    125d:	89 7d fc             	mov    %edi,-0x4(%rbp)
    1260:	89 75 f8             	mov    %esi,-0x8(%rbp)
    1263:	8b 55 f8             	mov    -0x8(%rbp),%edx
    1266:	8b 45 fc             	mov    -0x4(%rbp),%eax
    1269:	89 d6                	mov    %edx,%esi
    126b:	89 c7                	mov    %eax,%edi
    126d:	e8 b9 ff ff ff       	call   122b <_Z4add4ii>
    1272:	83 c0 01             	add    $0x1,%eax
    1275:	c9                   	leave
    1276:	c3                   	ret

0000000000001277 <_Z6addx_yii>:
    1277:	f3 0f 1e fa          	endbr64
    127b:	55                   	push   %rbp
    127c:	48 89 e5             	mov    %rsp,%rbp
    127f:	48 83 ec 08          	sub    $0x8,%rsp
    1283:	89 7d fc             	mov    %edi,-0x4(%rbp)
    1286:	89 75 f8             	mov    %esi,-0x8(%rbp)
    1289:	8b 55 f8             	mov    -0x8(%rbp),%edx
    128c:	8b 45 fc             	mov    -0x4(%rbp),%eax
    128f:	89 d6                	mov    %edx,%esi
    1291:	89 c7                	mov    %eax,%edi
    1293:	e8 b9 ff ff ff       	call   1251 <_Z4add5ii>
    1298:	c9                   	leave
    1299:	c3                   	ret

000000000000129a <main>:
    129a:	f3 0f 1e fa          	endbr64
    129e:	55                   	push   %rbp
    129f:	48 89 e5             	mov    %rsp,%rbp
    12a2:	48 83 ec 20          	sub    $0x20,%rsp
    12a6:	64 48 8b 04 25 28 00 	mov    %fs:0x28,%rax
    12ad:	00 00 
    12af:	48 89 45 f8          	mov    %rax,-0x8(%rbp)
    12b3:	31 c0                	xor    %eax,%eax
    12b5:	c7 45 ec 04 00 00 00 	movl   $0x4,-0x14(%rbp)
    12bc:	c7 45 f0 05 00 00 00 	movl   $0x5,-0x10(%rbp)
    12c3:	48 8d 45 ec          	lea    -0x14(%rbp),%rax
    12c7:	48 89 c6             	mov    %rax,%rsi
    12ca:	48 8d 05 4f 2d 00 00 	lea    0x2d4f(%rip),%rax        # 4020 <_ZSt3cin@GLIBCXX_3.4>
    12d1:	48 89 c7             	mov    %rax,%rdi
    12d4:	e8 b7 fd ff ff       	call   1090 <_ZNSirsERi@plt>
    12d9:	48 89 c2             	mov    %rax,%rdx
    12dc:	48 8d 45 f0          	lea    -0x10(%rbp),%rax
    12e0:	48 89 c6             	mov    %rax,%rsi
    12e3:	48 89 d7             	mov    %rdx,%rdi
    12e6:	e8 a5 fd ff ff       	call   1090 <_ZNSirsERi@plt>
    12eb:	8b 55 f0             	mov    -0x10(%rbp),%edx
    12ee:	8b 45 ec             	mov    -0x14(%rbp),%eax
    12f1:	89 d6                	mov    %edx,%esi
    12f3:	89 c7                	mov    %eax,%edi
    12f5:	e8 7d ff ff ff       	call   1277 <_Z6addx_yii>
    12fa:	89 45 f4             	mov    %eax,-0xc(%rbp)
    12fd:	8b 55 ec             	mov    -0x14(%rbp),%edx
    1300:	8b 45 f0             	mov    -0x10(%rbp),%eax
    1303:	01 d0                	add    %edx,%eax
    1305:	39 45 f4             	cmp    %eax,-0xc(%rbp)
    1308:	74 28                	je     1332 <main+0x98>
    130a:	48 8d 05 f7 0c 00 00 	lea    0xcf7(%rip),%rax        # 2008 <_IO_stdin_used+0x8>
    1311:	48 89 c1             	mov    %rax,%rcx
    1314:	ba 2e 00 00 00       	mov    $0x2e,%edx
    1319:	48 8d 05 f8 0c 00 00 	lea    0xcf8(%rip),%rax        # 2018 <_IO_stdin_used+0x18>
    1320:	48 89 c6             	mov    %rax,%rsi
    1323:	48 8d 05 14 0d 00 00 	lea    0xd14(%rip),%rax        # 203e <_IO_stdin_used+0x3e>
    132a:	48 89 c7             	mov    %rax,%rdi
    132d:	e8 6e fd ff ff       	call   10a0 <__assert_fail@plt>
    1332:	b8 00 00 00 00       	mov    $0x0,%eax
    1337:	48 8b 55 f8          	mov    -0x8(%rbp),%rdx
    133b:	64 48 2b 14 25 28 00 	sub    %fs:0x28,%rdx
    1342:	00 00 
    1344:	74 05                	je     134b <main+0xb1>
    1346:	e8 75 fd ff ff       	call   10c0 <__stack_chk_fail@plt>
    134b:	c9                   	leave
    134c:	c3                   	ret

000000000000134d <_Z41__static_initialization_and_destruction_0ii>:
    134d:	f3 0f 1e fa          	endbr64
    1351:	55                   	push   %rbp
    1352:	48 89 e5             	mov    %rsp,%rbp
    1355:	48 83 ec 10          	sub    $0x10,%rsp
    1359:	89 7d fc             	mov    %edi,-0x4(%rbp)
    135c:	89 75 f8             	mov    %esi,-0x8(%rbp)
    135f:	83 7d fc 01          	cmpl   $0x1,-0x4(%rbp)
    1363:	75 3b                	jne    13a0 <_Z41__static_initialization_and_destruction_0ii+0x53>
    1365:	81 7d f8 ff ff 00 00 	cmpl   $0xffff,-0x8(%rbp)
    136c:	75 32                	jne    13a0 <_Z41__static_initialization_and_destruction_0ii+0x53>
    136e:	48 8d 05 c4 2d 00 00 	lea    0x2dc4(%rip),%rax        # 4139 <_ZStL8__ioinit>
    1375:	48 89 c7             	mov    %rax,%rdi
    1378:	e8 53 fd ff ff       	call   10d0 <_ZNSt8ios_base4InitC1Ev@plt>
    137d:	48 8d 05 84 2c 00 00 	lea    0x2c84(%rip),%rax        # 4008 <__dso_handle>
    1384:	48 89 c2             	mov    %rax,%rdx
    1387:	48 8d 05 ab 2d 00 00 	lea    0x2dab(%rip),%rax        # 4139 <_ZStL8__ioinit>
    138e:	48 89 c6             	mov    %rax,%rsi
    1391:	48 8b 05 60 2c 00 00 	mov    0x2c60(%rip),%rax        # 3ff8 <_ZNSt8ios_base4InitD1Ev@GLIBCXX_3.4>
    1398:	48 89 c7             	mov    %rax,%rdi
    139b:	e8 10 fd ff ff       	call   10b0 <__cxa_atexit@plt>
    13a0:	90                   	nop
    13a1:	c9                   	leave
    13a2:	c3                   	ret

00000000000013a3 <_GLOBAL__sub_I__Z4add1ii>:
    13a3:	f3 0f 1e fa          	endbr64
    13a7:	55                   	push   %rbp
    13a8:	48 89 e5             	mov    %rsp,%rbp
    13ab:	be ff ff 00 00       	mov    $0xffff,%esi
    13b0:	bf 01 00 00 00       	mov    $0x1,%edi
    13b5:	e8 93 ff ff ff       	call   134d <_Z41__static_initialization_and_destruction_0ii>
    13ba:	5d                   	pop    %rbp
    13bb:	c3                   	ret

Disassembly of section .fini:

00000000000013bc <_fini>:
    13bc:	f3 0f 1e fa          	endbr64
    13c0:	48 83 ec 08          	sub    $0x8,%rsp
    13c4:	48 83 c4 08          	add    $0x8,%rsp
    13c8:	c3                   	ret
